target datalayout = "e-m:e-p270:32:32-p271:32:32-p272:64:64-i64:64-i128:128-f80:128-n8:16:32:64-S128"
target triple = "x86_64-pc-linux-gnu"

%"class.std::basic_ostream" = type { ptr, %"class.std::basic_ios" }
%"class.std::basic_ios" = type { %"class.std::ios_base", ptr, i8, i8, ptr, ptr, ptr, ptr }
%"class.std::ios_base" = type { ptr, i64, i64, i32, i32, i32, ptr, %"struct.std::ios_base::_Words", [8 x %"struct.std::ios_base::_Words"], i32, ptr, %"class.std::locale" }
%"struct.std::ios_base::_Words" = type { ptr, i64 }
%"class.std::locale" = type { ptr }
%"class.testing::internal::GTestLog" = type { i32 }

@.str.150 = private unnamed_addr constant [103 x i8] c"generated/home/dtcxzyw/WorkSpace/SDK/vcpkg/installed/x64-linux/include/gtest/internal/gtest-internal.h\00", align 1
@.str.151 = private unnamed_addr constant [51 x i8] c"Condition !test_case_fp || !test_suite_fp failed. \00", align 1
@.str.153 = private unnamed_addr constant [2 x i8] c":\00", align 1
@_ZSt4cerr = external global %"class.std::basic_ostream", align 8
@.str.154 = private unnamed_addr constant [112 x i8] c"Test can not provide both TearDownTestSuite and TearDownTestCase, please make sure there is only one present at\00", align 1

; Function Attrs: mustprogress nounwind uwtable
define linkonce_odr dso_local noundef nonnull align 8 dereferenceable(8) ptr @_ZN7testing8internal8GTestLog9GetStreamEv(ptr noundef nonnull align 4 dereferenceable(4) %0) #5 comdat align 2 {
  %2 = alloca ptr, align 8
  store ptr %0, ptr %2, align 8
  ret ptr @_ZSt4cerr
}

; Function Attrs: mustprogress nounwind uwtable
define linkonce_odr dso_local noundef ptr @_ZN7testing8internal19GetNotDefaultOrNullEPFvvES2_(ptr noundef %0, ptr noundef %1) #5 comdat {
  %3 = alloca ptr, align 8
  %4 = alloca ptr, align 8
  store ptr %0, ptr %3, align 8
  store ptr %1, ptr %4, align 8
  %5 = load ptr, ptr %3, align 8
  %6 = load ptr, ptr %4, align 8
  %7 = icmp eq ptr %5, %6
  br i1 %7, label %8, label %9

8:                                                ; preds = %2
  br label %11

9:                                                ; preds = %2
  %10 = load ptr, ptr %3, align 8
  br label %11

11:                                               ; preds = %9, %8
  %12 = phi ptr [ null, %8 ], [ %10, %9 ]
  ret ptr %12
}

; Function Attrs: mustprogress uwtable
define internal noundef ptr @_ZN7testing8internal16SuiteApiResolverIN12_GLOBAL__N_113CleanDeadTestEE22GetTearDownCaseOrSuiteEPKci(ptr noundef %0, i32 noundef %1) #4 align 2 personality ptr @__gxx_personality_v0 {
  %3 = alloca ptr, align 8
  %4 = alloca i32, align 4
  %5 = alloca ptr, align 8
  %6 = alloca ptr, align 8
  %7 = alloca %"class.testing::internal::GTestLog", align 4
  %8 = alloca ptr, align 8
  %9 = alloca i32, align 4
  store ptr %0, ptr %3, align 8
  store i32 %1, ptr %4, align 4
  %10 = call noundef ptr @_ZN7testing8internal19GetNotDefaultOrNullEPFvvES2_(ptr noundef @_ZN7testing4Test16TearDownTestCaseEv, ptr noundef @_ZN7testing4Test16TearDownTestCaseEv)
  store ptr %10, ptr %5, align 8
  %11 = call noundef ptr @_ZN7testing8internal19GetNotDefaultOrNullEPFvvES2_(ptr noundef @_ZN7testing4Test17TearDownTestSuiteEv, ptr noundef @_ZN7testing4Test17TearDownTestSuiteEv)
  store ptr %11, ptr %6, align 8
  %12 = load ptr, ptr %5, align 8
  %13 = icmp ne ptr %12, null
  br i1 %13, label %14, label %18

14:                                               ; preds = %2
  %15 = load ptr, ptr %6, align 8
  %16 = icmp ne ptr %15, null
  %17 = xor i1 %16, true
  br label %18

18:                                               ; preds = %14, %2
  %19 = phi i1 [ true, %2 ], [ %17, %14 ]
  %20 = call noundef zeroext i1 @_ZN7testing8internal6IsTrueEb(i1 noundef zeroext %19)
  br i1 %20, label %21, label %22

21:                                               ; preds = %18
  br label %40

22:                                               ; preds = %18
  call void @_ZN7testing8internal8GTestLogC1ENS0_16GTestLogSeverityEPKci(ptr noundef nonnull align 4 dereferenceable(4) %7, i32 noundef 3, ptr noundef @.str.150, i32 noundef 549)
  %23 = call noundef nonnull align 8 dereferenceable(8) ptr @_ZN7testing8internal8GTestLog9GetStreamEv(ptr noundef nonnull align 4 dereferenceable(4) %7)
  %24 = invoke noundef nonnull align 8 dereferenceable(8) ptr @_ZStlsISt11char_traitsIcEERSt13basic_ostreamIcT_ES5_PKc(ptr noundef nonnull align 8 dereferenceable(8) %23, ptr noundef @.str.151)
          to label %25 unwind label %36

25:                                               ; preds = %22
  %26 = invoke noundef nonnull align 8 dereferenceable(8) ptr @_ZStlsISt11char_traitsIcEERSt13basic_ostreamIcT_ES5_PKc(ptr noundef nonnull align 8 dereferenceable(8) %24, ptr noundef @.str.154)
          to label %27 unwind label %36

27:                                               ; preds = %25
  %28 = load ptr, ptr %3, align 8
  %29 = invoke noundef nonnull align 8 dereferenceable(8) ptr @_ZStlsISt11char_traitsIcEERSt13basic_ostreamIcT_ES5_PKc(ptr noundef nonnull align 8 dereferenceable(8) %26, ptr noundef %28)
          to label %30 unwind label %36

30:                                               ; preds = %27
  %31 = invoke noundef nonnull align 8 dereferenceable(8) ptr @_ZStlsISt11char_traitsIcEERSt13basic_ostreamIcT_ES5_PKc(ptr noundef nonnull align 8 dereferenceable(8) %29, ptr noundef @.str.153)
          to label %32 unwind label %36

32:                                               ; preds = %30
  %33 = load i32, ptr %4, align 4
  %34 = invoke noundef nonnull align 8 dereferenceable(8) ptr @_ZNSolsEi(ptr noundef nonnull align 8 dereferenceable(8) %31, i32 noundef %33)
          to label %35 unwind label %36

35:                                               ; preds = %32
  call void @_ZN7testing8internal8GTestLogD1Ev(ptr noundef nonnull align 4 dereferenceable(4) %7) #3
  br label %40

36:                                               ; preds = %32, %30, %27, %25, %22
  %37 = landingpad { ptr, i32 }
          cleanup
  %38 = extractvalue { ptr, i32 } %37, 0
  store ptr %38, ptr %8, align 8
  %39 = extractvalue { ptr, i32 } %37, 1
  store i32 %39, ptr %9, align 4
  call void @_ZN7testing8internal8GTestLogD1Ev(ptr noundef nonnull align 4 dereferenceable(4) %7) #3
  br label %49

40:                                               ; preds = %35, %21
  %41 = load ptr, ptr %5, align 8
  %42 = icmp ne ptr %41, null
  br i1 %42, label %43, label %45

43:                                               ; preds = %40
  %44 = load ptr, ptr %5, align 8
  br label %47

45:                                               ; preds = %40
  %46 = load ptr, ptr %6, align 8
  br label %47

47:                                               ; preds = %45, %43
  %48 = phi ptr [ %44, %43 ], [ %46, %45 ]
  ret ptr %48

49:                                               ; preds = %36
  %50 = load ptr, ptr %8, align 8
  %51 = load i32, ptr %9, align 4
  %52 = insertvalue { ptr, i32 } poison, ptr %50, 0
  %53 = insertvalue { ptr, i32 } %52, i32 %51, 1
  resume { ptr, i32 } %53
}